target datalayout = "e-m:e-p270:32:32-p271:32:32-p272:64:64-i64:64-i128:128-f80:128-n8:16:32:64-S128"
target triple = "x86_64-pc-linux-gnu"

%"struct.cv::utils::trace::details::Region::LocationStaticStorage" = type { ptr, ptr, ptr, i32, i32 }
%"class.cv::utils::trace::details::Region" = type <{ ptr, i32, [4 x i8] }>
%"class.std::__cxx11::basic_string" = type { %"struct.std::__cxx11::basic_string<char>::_Alloc_hider", i64, %union.anon }
%"struct.std::__cxx11::basic_string<char>::_Alloc_hider" = type { ptr }
%union.anon = type { i64, [8 x i8] }

@.str.17 = private unnamed_addr constant [136 x i8] c"generated/home/dtcxzyw/WorkSpace/Projects/compilers/llvm-opt-benchmark/bench/opencv/opencv/modules/core/src/mathfuncs_core.dispatch.cpp\00", align 1
@_ZZN2cv3hal12magnitude32fEPKfS2_PfiE24__cv_trace_location_fn62 = internal constant %"struct.cv::utils::trace::details::Region::LocationStaticStorage" { ptr @_ZZN2cv3hal12magnitude32fEPKfS2_PfiE30__cv_trace_location_extra_fn62, ptr @.str.26, ptr @.str.17, i32 62, i32 1 }, align 8
@.str.27 = private unnamed_addr constant [77 x i8] c"HAL implementation magnitude32f ==> hal_ni_magnitude32f returned %d (0x%08x)\00", align 1
@__func__._ZN2cv3hal12magnitude32fEPKfS2_Pfi = private unnamed_addr constant [13 x i8] c"magnitude32f\00", align 1

; Function Attrs: mustprogress nounwind uwtable
define linkonce_odr hidden void @_ZNSt15__new_allocatorIcE10deallocateEPcm(ptr noundef nonnull align 1 dereferenceable(1) %0, ptr noundef %1, i64 noundef %2) #8 comdat align 2 {
  %4 = alloca ptr, align 8
  %5 = alloca ptr, align 8
  %6 = alloca i64, align 8
  store ptr %0, ptr %4, align 8, !tbaa !56
  store ptr %1, ptr %5, align 8, !tbaa !63
  store i64 %2, ptr %6, align 8, !tbaa !51
  %7 = load ptr, ptr %5, align 8, !tbaa !63
  call void @_ZdlPv(ptr noundef %7) #17
  ret void
}

; Function Attrs: mustprogress nounwind uwtable
define linkonce_odr hidden noundef ptr @_ZNSt19__ptr_traits_ptr_toIPKcS0_Lb0EE10pointer_toERS0_(ptr noundef nonnull align 1 dereferenceable(1) %0) #8 comdat align 2 {
  %2 = alloca ptr, align 8
  store ptr %0, ptr %2, align 8, !tbaa !63
  %3 = load ptr, ptr %2, align 8, !tbaa !63
  ret ptr %3
}

; Function Attrs: mustprogress uwtable
define linkonce_odr hidden void @_ZNSt16allocator_traitsISaIcEE10deallocateERS0_Pcm(ptr noundef nonnull align 1 dereferenceable(1) %0, ptr noundef %1, i64 noundef %2) #0 comdat align 2 {
  %4 = alloca ptr, align 8
  %5 = alloca ptr, align 8
  %6 = alloca i64, align 8
  store ptr %0, ptr %4, align 8, !tbaa !64
  store ptr %1, ptr %5, align 8, !tbaa !63
  store i64 %2, ptr %6, align 8, !tbaa !51
  %7 = load ptr, ptr %4, align 8, !tbaa !64
  %8 = load ptr, ptr %5, align 8, !tbaa !63
  %9 = load i64, ptr %6, align 8, !tbaa !51
  call void @_ZNSt15__new_allocatorIcE10deallocateEPcm(ptr noundef nonnull align 1 dereferenceable(1) %7, ptr noundef %8, i64 noundef %9)
  ret void
}

; Function Attrs: mustprogress nounwind uwtable
define available_externally noundef nonnull align 1 dereferenceable(1) ptr @_ZNSt7__cxx1112basic_stringIcSt11char_traitsIcESaIcEE16_M_get_allocatorEv(ptr noundef nonnull align 8 dereferenceable(32) %0) #8 align 2 {
  %2 = alloca ptr, align 8
  store ptr %0, ptr %2, align 8, !tbaa !54
  %3 = load ptr, ptr %2, align 8
  %4 = getelementptr inbounds nuw %"class.std::__cxx11::basic_string", ptr %3, i32 0, i32 0
  ret ptr %4
}

; Function Attrs: mustprogress nounwind uwtable
define available_externally noundef ptr @_ZNKSt7__cxx1112basic_stringIcSt11char_traitsIcESaIcEE13_M_local_dataEv(ptr noundef nonnull align 8 dereferenceable(32) %0) #8 align 2 {
  %2 = alloca ptr, align 8
  store ptr %0, ptr %2, align 8, !tbaa !54
  %3 = load ptr, ptr %2, align 8
  %4 = getelementptr inbounds nuw %"class.std::__cxx11::basic_string", ptr %3, i32 0, i32 2
  %5 = getelementptr inbounds [16 x i8], ptr %4, i64 0, i64 0
  %6 = call noundef ptr @_ZNSt19__ptr_traits_ptr_toIPKcS0_Lb0EE10pointer_toERS0_(ptr noundef nonnull align 1 dereferenceable(1) %5) #14
  ret ptr %6
}

; Function Attrs: mustprogress nounwind uwtable
define available_externally noundef ptr @_ZNKSt7__cxx1112basic_stringIcSt11char_traitsIcESaIcEE7_M_dataEv(ptr noundef nonnull align 8 dereferenceable(32) %0) #8 align 2 {
  %2 = alloca ptr, align 8
  store ptr %0, ptr %2, align 8, !tbaa !54
  %3 = load ptr, ptr %2, align 8
  %4 = getelementptr inbounds nuw %"class.std::__cxx11::basic_string", ptr %3, i32 0, i32 0
  %5 = getelementptr inbounds nuw %"struct.std::__cxx11::basic_string<char>::_Alloc_hider", ptr %4, i32 0, i32 0
  %6 = load ptr, ptr %5, align 8, !tbaa !62
  ret ptr %6
}

; Function Attrs: mustprogress nounwind uwtable
define available_externally void @_ZNSt7__cxx1112basic_stringIcSt11char_traitsIcESaIcEE10_M_destroyEm(ptr noundef nonnull align 8 dereferenceable(32) %0, i64 noundef %1) #8 align 2 personality ptr @__gxx_personality_v0 {
  %3 = alloca ptr, align 8
  %4 = alloca i64, align 8
  %5 = alloca ptr, align 8
  %6 = alloca i32, align 4
  store ptr %0, ptr %3, align 8, !tbaa !54
  store i64 %1, ptr %4, align 8, !tbaa !51
  %7 = load ptr, ptr %3, align 8
  %8 = invoke noundef nonnull align 1 dereferenceable(1) ptr @_ZNSt7__cxx1112basic_stringIcSt11char_traitsIcESaIcEE16_M_get_allocatorEv(ptr noundef nonnull align 8 dereferenceable(32) %7)
          to label %9 unwind label %14

9:                                                ; preds = %2
  %10 = call noundef ptr @_ZNKSt7__cxx1112basic_stringIcSt11char_traitsIcESaIcEE7_M_dataEv(ptr noundef nonnull align 8 dereferenceable(32) %7)
  %11 = load i64, ptr %4, align 8, !tbaa !51
  %12 = add i64 %11, 1
  invoke void @_ZNSt16allocator_traitsISaIcEE10deallocateERS0_Pcm(ptr noundef nonnull align 1 dereferenceable(1) %8, ptr noundef %10, i64 noundef %12)
          to label %13 unwind label %14

13:                                               ; preds = %9
  ret void

14:                                               ; preds = %9, %2
  %15 = landingpad { ptr, i32 }
          filter [0 x ptr] zeroinitializer
  %16 = extractvalue { ptr, i32 } %15, 0
  store ptr %16, ptr %5, align 8
  %17 = extractvalue { ptr, i32 } %15, 1
  store i32 %17, ptr %6, align 4
  br label %18

18:                                               ; preds = %14
  %19 = load ptr, ptr %5, align 8
  call void @__cxa_call_unexpected(ptr %19) #16
  unreachable
}

; Function Attrs: mustprogress uwtable
define available_externally noundef zeroext i1 @_ZNKSt7__cxx1112basic_stringIcSt11char_traitsIcESaIcEE11_M_is_localEv(ptr noundef nonnull align 8 dereferenceable(32) %0) #0 align 2 {
  %2 = alloca i1, align 1
  %3 = alloca ptr, align 8
  store ptr %0, ptr %3, align 8, !tbaa !54
  %4 = load ptr, ptr %3, align 8
  %5 = call noundef ptr @_ZNKSt7__cxx1112basic_stringIcSt11char_traitsIcESaIcEE7_M_dataEv(ptr noundef nonnull align 8 dereferenceable(32) %4)
  %6 = call noundef ptr @_ZNKSt7__cxx1112basic_stringIcSt11char_traitsIcESaIcEE13_M_local_dataEv(ptr noundef nonnull align 8 dereferenceable(32) %4)
  %7 = icmp eq ptr %5, %6
  br i1 %7, label %8, label %14

8:                                                ; preds = %1
  %9 = getelementptr inbounds nuw %"class.std::__cxx11::basic_string", ptr %4, i32 0, i32 1
  %10 = load i64, ptr %9, align 8, !tbaa !58
  %11 = icmp ugt i64 %10, 15
  br i1 %11, label %12, label %13

12:                                               ; preds = %8
  unreachable

13:                                               ; preds = %8
  store i1 true, ptr %2, align 1
  br label %15

14:                                               ; preds = %1
  store i1 false, ptr %2, align 1
  br label %15

15:                                               ; preds = %14, %13
  %16 = load i1, ptr %2, align 1
  ret i1 %16
}

; Function Attrs: inlinehint mustprogress nounwind uwtable
define linkonce_odr noundef float @_ZSt4sqrtf(float noundef %0) #3 comdat {
  %2 = alloca float, align 4
  store float %0, ptr %2, align 4, !tbaa !14
  %3 = load float, ptr %2, align 4, !tbaa !14
  %4 = call float @sqrtf(float noundef %3) #14, !tbaa !8
  ret float %4
}

; Function Attrs: mustprogress nounwind uwtable
define linkonce_odr hidden void @_ZNSt15__new_allocatorIcED2Ev(ptr noundef nonnull align 1 dereferenceable(1) %0) unnamed_addr #8 comdat align 2 {
  %2 = alloca ptr, align 8
  store ptr %0, ptr %2, align 8, !tbaa !56
  ret void
}

; Function Attrs: mustprogress uwtable
define available_externally void @_ZNSt7__cxx1112basic_stringIcSt11char_traitsIcESaIcEE10_M_disposeEv(ptr noundef nonnull align 8 dereferenceable(32) %0) #0 align 2 {
  %2 = alloca ptr, align 8
  store ptr %0, ptr %2, align 8, !tbaa !54
  %3 = load ptr, ptr %2, align 8
  %4 = call noundef zeroext i1 @_ZNKSt7__cxx1112basic_stringIcSt11char_traitsIcESaIcEE11_M_is_localEv(ptr noundef nonnull align 8 dereferenceable(32) %3)
  br i1 %4, label %8, label %5

5:                                                ; preds = %1
  %6 = getelementptr inbounds nuw %"class.std::__cxx11::basic_string", ptr %3, i32 0, i32 2
  %7 = load i64, ptr %6, align 8, !tbaa !45
  call void @_ZNSt7__cxx1112basic_stringIcSt11char_traitsIcESaIcEE10_M_destroyEm(ptr noundef nonnull align 8 dereferenceable(32) %3, i64 noundef %7) #14
  br label %8

8:                                                ; preds = %5, %1
  ret void
}

; Function Attrs: mustprogress uwtable
define hidden void @_ZN2cv3hal12cpu_baseline12magnitude32fEPKfS3_Pfi(ptr noundef %0, ptr noundef %1, ptr noundef %2, i32 noundef %3) #0 personality ptr @__gxx_personality_v0 {
  %5 = alloca ptr, align 8
  %6 = alloca ptr, align 8
  %7 = alloca ptr, align 8
  %8 = alloca i32, align 4
  %9 = alloca %"class.cv::utils::trace::details::Region", align 8
  %10 = alloca i32, align 4
  %11 = alloca float, align 4
  %12 = alloca float, align 4
  %13 = alloca ptr, align 8
  %14 = alloca i32, align 4
  store ptr %0, ptr %5, align 8, !tbaa !3
  store ptr %1, ptr %6, align 8, !tbaa !3
  store ptr %2, ptr %7, align 8, !tbaa !3
  store i32 %3, ptr %8, align 4, !tbaa !8
  call void @llvm.lifetime.start.p0(i64 16, ptr %9) #14
  call void @_ZN2cv5utils5trace7details6RegionC1ERKNS3_21LocationStaticStorageE(ptr noundef nonnull align 8 dereferenceable(12) %9, ptr noundef nonnull align 8 dereferenceable(32) @_ZZN2cv3hal12cpu_baseline12magnitude32fEPKfS3_PfiE25__cv_trace_location_fn272)
  call void @llvm.lifetime.start.p0(i64 4, ptr %10) #14
  store i32 0, ptr %10, align 4, !tbaa !8
  br label %15

15:                                               ; preds = %42, %4
  %16 = load i32, ptr %10, align 4, !tbaa !8
  %17 = load i32, ptr %8, align 4, !tbaa !8
  %18 = icmp slt i32 %16, %17
  br i1 %18, label %19, label %49

19:                                               ; preds = %15
  call void @llvm.lifetime.start.p0(i64 4, ptr %11) #14
  %20 = load ptr, ptr %5, align 8, !tbaa !3
  %21 = load i32, ptr %10, align 4, !tbaa !8
  %22 = sext i32 %21 to i64
  %23 = getelementptr inbounds float, ptr %20, i64 %22
  %24 = load float, ptr %23, align 4, !tbaa !14
  store float %24, ptr %11, align 4, !tbaa !14
  call void @llvm.lifetime.start.p0(i64 4, ptr %12) #14
  %25 = load ptr, ptr %6, align 8, !tbaa !3
  %26 = load i32, ptr %10, align 4, !tbaa !8
  %27 = sext i32 %26 to i64
  %28 = getelementptr inbounds float, ptr %25, i64 %27
  %29 = load float, ptr %28, align 4, !tbaa !14
  store float %29, ptr %12, align 4, !tbaa !14
  %30 = load float, ptr %11, align 4, !tbaa !14
  %31 = load float, ptr %11, align 4, !tbaa !14
  %32 = load float, ptr %12, align 4, !tbaa !14
  %33 = load float, ptr %12, align 4, !tbaa !14
  %34 = fmul float %32, %33
  %35 = call float @llvm.fmuladd.f32(float %30, float %31, float %34)
  %36 = invoke noundef float @_ZSt4sqrtf(float noundef %35)
          to label %37 unwind label %45

37:                                               ; preds = %19
  %38 = load ptr, ptr %7, align 8, !tbaa !3
  %39 = load i32, ptr %10, align 4, !tbaa !8
  %40 = sext i32 %39 to i64
  %41 = getelementptr inbounds float, ptr %38, i64 %40
  store float %36, ptr %41, align 4, !tbaa !14
  call void @llvm.lifetime.end.p0(i64 4, ptr %12) #14
  call void @llvm.lifetime.end.p0(i64 4, ptr %11) #14
  br label %42

42:                                               ; preds = %37
  %43 = load i32, ptr %10, align 4, !tbaa !8
  %44 = add nsw i32 %43, 1
  store i32 %44, ptr %10, align 4, !tbaa !8
  br label %15, !llvm.loop !37

45:                                               ; preds = %19
  %46 = landingpad { ptr, i32 }
          cleanup
  %47 = extractvalue { ptr, i32 } %46, 0
  store ptr %47, ptr %13, align 8
  %48 = extractvalue { ptr, i32 } %46, 1
  store i32 %48, ptr %14, align 4
  call void @llvm.lifetime.end.p0(i64 4, ptr %12) #14
  call void @llvm.lifetime.end.p0(i64 4, ptr %11) #14
  call void @llvm.lifetime.end.p0(i64 4, ptr %10) #14
  call void @_ZN2cv5utils5trace7details6RegionD2Ev(ptr noundef nonnull align 8 dereferenceable(12) %9) #14
  call void @llvm.lifetime.end.p0(i64 16, ptr %9) #14
  br label %50

49:                                               ; preds = %15
  call void @llvm.lifetime.end.p0(i64 4, ptr %10) #14
  call void @_ZN2cv5utils5trace7details6RegionD2Ev(ptr noundef nonnull align 8 dereferenceable(12) %9) #14
  call void @llvm.lifetime.end.p0(i64 16, ptr %9) #14
  ret void

50:                                               ; preds = %45
  %51 = load ptr, ptr %13, align 8
  %52 = load i32, ptr %14, align 4
  %53 = insertvalue { ptr, i32 } poison, ptr %51, 0
  %54 = insertvalue { ptr, i32 } %53, i32 %52, 1
  resume { ptr, i32 } %54
}

; Function Attrs: mustprogress nounwind uwtable
define available_externally void @_ZNSt7__cxx1112basic_stringIcSt11char_traitsIcESaIcEED2Ev(ptr noundef nonnull align 8 dereferenceable(32) %0) unnamed_addr #8 align 2 personality ptr @__gxx_personality_v0 {
  %2 = alloca ptr, align 8
  store ptr %0, ptr %2, align 8, !tbaa !54
  %3 = load ptr, ptr %2, align 8
  invoke void @_ZNSt7__cxx1112basic_stringIcSt11char_traitsIcESaIcEE10_M_disposeEv(ptr noundef nonnull align 8 dereferenceable(32) %3)
          to label %4 unwind label %6

4:                                                ; preds = %1
  %5 = getelementptr inbounds nuw %"class.std::__cxx11::basic_string", ptr %3, i32 0, i32 0
  call void @_ZNSt15__new_allocatorIcED2Ev(ptr noundef nonnull align 8 dereferenceable(8) %5) #14
  ret void

6:                                                ; preds = %1
  %7 = landingpad { ptr, i32 }
          catch ptr null
  %8 = extractvalue { ptr, i32 } %7, 0
  call void @__clang_call_terminate(ptr %8) #15
  unreachable
}

; Function Attrs: inlinehint mustprogress nounwind uwtable
define linkonce_odr hidden noundef i32 @_Z19hal_ni_magnitude32fPKfS0_Pfi(ptr noundef %0, ptr noundef %1, ptr noundef %2, i32 noundef %3) #3 comdat {
  %5 = alloca ptr, align 8
  %6 = alloca ptr, align 8
  %7 = alloca ptr, align 8
  %8 = alloca i32, align 4
  store ptr %0, ptr %5, align 8, !tbaa !3
  store ptr %1, ptr %6, align 8, !tbaa !3
  store ptr %2, ptr %7, align 8, !tbaa !3
  store i32 %3, ptr %8, align 4, !tbaa !8
  ret i32 1
}

; Function Attrs: mustprogress uwtable
define void @_ZN2cv3hal12magnitude32fEPKfS2_Pfi(ptr noundef %0, ptr noundef %1, ptr noundef %2, i32 noundef %3) #0 personality ptr @__gxx_personality_v0 {
  %5 = alloca ptr, align 8
  %6 = alloca ptr, align 8
  %7 = alloca ptr, align 8
  %8 = alloca i32, align 4
  %9 = alloca %"class.cv::utils::trace::details::Region", align 8
  %10 = alloca i32, align 4
  %11 = alloca ptr, align 8
  %12 = alloca i32, align 4
  %13 = alloca i32, align 4
  %14 = alloca %"class.std::__cxx11::basic_string", align 8
  store ptr %0, ptr %5, align 8, !tbaa !3
  store ptr %1, ptr %6, align 8, !tbaa !3
  store ptr %2, ptr %7, align 8, !tbaa !3
  store i32 %3, ptr %8, align 4, !tbaa !8
  call void @llvm.lifetime.start.p0(i64 16, ptr %9) #14
  call void @_ZN2cv5utils5trace7details6RegionC1ERKNS3_21LocationStaticStorageE(ptr noundef nonnull align 8 dereferenceable(12) %9, ptr noundef nonnull align 8 dereferenceable(32) @_ZZN2cv3hal12magnitude32fEPKfS2_PfiE24__cv_trace_location_fn62)
  call void @llvm.lifetime.start.p0(i64 4, ptr %10) #14
  %15 = load ptr, ptr %5, align 8, !tbaa !3
  %16 = load ptr, ptr %6, align 8, !tbaa !3
  %17 = load ptr, ptr %7, align 8, !tbaa !3
  %18 = load i32, ptr %8, align 4, !tbaa !8
  %19 = invoke noundef i32 @_Z19hal_ni_magnitude32fPKfS0_Pfi(ptr noundef %15, ptr noundef %16, ptr noundef %17, i32 noundef %18)
          to label %20 unwind label %24

20:                                               ; preds = %4
  store i32 %19, ptr %10, align 4, !tbaa !8
  %21 = load i32, ptr %10, align 4, !tbaa !8
  %22 = icmp eq i32 %21, 0
  br i1 %22, label %23, label %28

23:                                               ; preds = %20
  store i32 1, ptr %13, align 4
  br label %47

24:                                               ; preds = %4
  %25 = landingpad { ptr, i32 }
          cleanup
  %26 = extractvalue { ptr, i32 } %25, 0
  store ptr %26, ptr %11, align 8
  %27 = extractvalue { ptr, i32 } %25, 1
  store i32 %27, ptr %12, align 4
  br label %55

28:                                               ; preds = %20
  %29 = load i32, ptr %10, align 4, !tbaa !8
  %30 = icmp ne i32 %29, 1
  br i1 %30, label %31, label %45

31:                                               ; preds = %28
  call void @llvm.lifetime.start.p0(i64 32, ptr %14) #14
  %32 = load i32, ptr %10, align 4, !tbaa !8
  %33 = load i32, ptr %10, align 4, !tbaa !8
  invoke void (ptr, ptr, ...) @_ZN2cv6formatB5cxx11EPKcz(ptr dead_on_unwind writable sret(%"class.std::__cxx11::basic_string") align 8 %14, ptr noundef @.str.27, i32 noundef %32, i32 noundef %33)
          to label %34 unwind label %36

34:                                               ; preds = %31
  invoke void @_ZN2cv5errorEiRKNSt7__cxx1112basic_stringIcSt11char_traitsIcESaIcEEEPKcS9_i(i32 noundef -3, ptr noundef nonnull align 8 dereferenceable(32) %14, ptr noundef @__func__._ZN2cv3hal12magnitude32fEPKfS2_Pfi, ptr noundef @.str.17, i32 noundef 64) #16
          to label %35 unwind label %40

35:                                               ; preds = %34
  unreachable

36:                                               ; preds = %31
  %37 = landingpad { ptr, i32 }
          cleanup
  %38 = extractvalue { ptr, i32 } %37, 0
  store ptr %38, ptr %11, align 8
  %39 = extractvalue { ptr, i32 } %37, 1
  store i32 %39, ptr %12, align 4
  br label %44

40:                                               ; preds = %34
  %41 = landingpad { ptr, i32 }
          cleanup
  %42 = extractvalue { ptr, i32 } %41, 0
  store ptr %42, ptr %11, align 8
  %43 = extractvalue { ptr, i32 } %41, 1
  store i32 %43, ptr %12, align 4
  call void @_ZNSt7__cxx1112basic_stringIcSt11char_traitsIcESaIcEED2Ev(ptr noundef nonnull align 8 dereferenceable(32) %14) #14
  br label %44

44:                                               ; preds = %40, %36
  call void @llvm.lifetime.end.p0(i64 32, ptr %14) #14
  br label %55

45:                                               ; preds = %28
  br label %46

46:                                               ; preds = %45
  store i32 0, ptr %13, align 4
  br label %47

47:                                               ; preds = %46, %23
  call void @llvm.lifetime.end.p0(i64 4, ptr %10) #14
  %48 = load i32, ptr %13, align 4
  switch i32 %48, label %60 [
    i32 0, label %49
  ]

49:                                               ; preds = %47
  %50 = load ptr, ptr %5, align 8, !tbaa !3
  %51 = load ptr, ptr %6, align 8, !tbaa !3
  %52 = load ptr, ptr %7, align 8, !tbaa !3
  %53 = load i32, ptr %8, align 4, !tbaa !8
  invoke void @_ZN2cv3hal12cpu_baseline12magnitude32fEPKfS3_Pfi(ptr noundef %50, ptr noundef %51, ptr noundef %52, i32 noundef %53)
          to label %54 unwind label %56

54:                                               ; preds = %49
  store i32 1, ptr %13, align 4
  br label %60

55:                                               ; preds = %44, %24
  call void @llvm.lifetime.end.p0(i64 4, ptr %10) #14
  br label %61

56:                                               ; preds = %49
  %57 = landingpad { ptr, i32 }
          cleanup
  %58 = extractvalue { ptr, i32 } %57, 0
  store ptr %58, ptr %11, align 8
  %59 = extractvalue { ptr, i32 } %57, 1
  store i32 %59, ptr %12, align 4
  br label %61

60:                                               ; preds = %54, %47
  call void @_ZN2cv5utils5trace7details6RegionD2Ev(ptr noundef nonnull align 8 dereferenceable(12) %9) #14
  call void @llvm.lifetime.end.p0(i64 16, ptr %9) #14
  ret void

61:                                               ; preds = %56, %55
  call void @_ZN2cv5utils5trace7details6RegionD2Ev(ptr noundef nonnull align 8 dereferenceable(12) %9) #14
  call void @llvm.lifetime.end.p0(i64 16, ptr %9) #14
  br label %62

62:                                               ; preds = %61
  %63 = load ptr, ptr %11, align 8
  %64 = load i32, ptr %12, align 4
  %65 = insertvalue { ptr, i32 } poison, ptr %63, 0
  %66 = insertvalue { ptr, i32 } %65, i32 %64, 1
  resume { ptr, i32 } %66
}