; Function Attrs: mustprogress uwtable
define void @_ZN2cv3hal12magnitude32fEPKfS2_Pfi(ptr noundef readonly captures(none) %0, ptr noundef readonly captures(none) %1, ptr noundef writeonly captures(none) %2, i32 noundef %3) local_unnamed_addr #0 personality ptr @__gxx_personality_v0 {
  %5 = alloca %"class.cv::utils::trace::details::Region", align 8
  %6 = alloca %"class.cv::utils::trace::details::Region", align 8
  call void @llvm.lifetime.start.p0(i64 16, ptr nonnull %6) #12
  call void @_ZN2cv5utils5trace7details6RegionC1ERKNS3_21LocationStaticStorageE(ptr noundef nonnull align 8 dereferenceable(12) %6, ptr noundef nonnull align 8 dereferenceable(32) @_ZZN2cv3hal12magnitude32fEPKfS2_PfiE24__cv_trace_location_fn62)
  call void @llvm.lifetime.start.p0(i64 16, ptr nonnull %5) #12
  invoke void @_ZN2cv5utils5trace7details6RegionC1ERKNS3_21LocationStaticStorageE(ptr noundef nonnull align 8 dereferenceable(12) %5, ptr noundef nonnull align 8 dereferenceable(32) @_ZZN2cv3hal12cpu_baseline12magnitude32fEPKfS3_PfiE25__cv_trace_location_fn272)
          to label %.noexc unwind label %27

.noexc:                                           ; preds = %4
  %7 = icmp sgt i32 %3, 0
  br i1 %7, label %.lr.ph.preheader.i, label %._crit_edge.i

.lr.ph.preheader.i:                               ; preds = %.noexc
  %wide.trip.count.i = zext nneg i32 %3 to i64
  br label %.lr.ph.i

.lr.ph.i:                                         ; preds = %.lr.ph.i, %.lr.ph.preheader.i
  %indvars.iv.i = phi i64 [ 0, %.lr.ph.preheader.i ], [ %indvars.iv.next.i, %.lr.ph.i ]
  %8 = getelementptr inbounds nuw float, ptr %0, i64 %indvars.iv.i
  %9 = load float, ptr %8, align 4, !tbaa !3
  %10 = getelementptr inbounds nuw float, ptr %1, i64 %indvars.iv.i
  %11 = load float, ptr %10, align 4, !tbaa !3
  %12 = fmul float %11, %11
  %13 = call float @llvm.fmuladd.f32(float %9, float %9, float %12)
  %sqrt.i = call float @llvm.sqrt.f32(float %13)
  %14 = getelementptr inbounds nuw float, ptr %2, i64 %indvars.iv.i
  store float %sqrt.i, ptr %14, align 4, !tbaa !3
  %indvars.iv.next.i = add nuw nsw i64 %indvars.iv.i, 1
  %exitcond.not.i = icmp eq i64 %indvars.iv.next.i, %wide.trip.count.i
  br i1 %exitcond.not.i, label %._crit_edge.i, label %.lr.ph.i, !llvm.loop !24

._crit_edge.i:                                    ; preds = %.lr.ph.i, %.noexc
  %15 = getelementptr inbounds nuw i8, ptr %5, i64 8
  %16 = load i32, ptr %15, align 8, !tbaa !9
  %.not.i.i = icmp eq i32 %16, 0
  br i1 %.not.i.i, label %.critedge, label %17

17:                                               ; preds = %._crit_edge.i
  invoke void @_ZN2cv5utils5trace7details6Region7destroyEv(ptr noundef nonnull align 8 dereferenceable(12) %5)
          to label %.critedge unwind label %18

18:                                               ; preds = %17
  %19 = landingpad { ptr, i32 }
          catch ptr null
  %20 = extractvalue { ptr, i32 } %19, 0
  call void @__clang_call_terminate(ptr %20) #13
  unreachable

.critedge:                                        ; preds = %17, %._crit_edge.i
  call void @llvm.lifetime.end.p0(i64 16, ptr nonnull %5) #12
  %21 = getelementptr inbounds nuw i8, ptr %6, i64 8
  %22 = load i32, ptr %21, align 8, !tbaa !9
  %.not.i = icmp eq i32 %22, 0
  br i1 %.not.i, label %_ZN2cv5utils5trace7details6RegionD2Ev.exit, label %23

23:                                               ; preds = %.critedge
  invoke void @_ZN2cv5utils5trace7details6Region7destroyEv(ptr noundef nonnull align 8 dereferenceable(12) %6)
          to label %_ZN2cv5utils5trace7details6RegionD2Ev.exit unwind label %24

24:                                               ; preds = %23
  %25 = landingpad { ptr, i32 }
          catch ptr null
  %26 = extractvalue { ptr, i32 } %25, 0
  call void @__clang_call_terminate(ptr %26) #13
  unreachable

_ZN2cv5utils5trace7details6RegionD2Ev.exit:       ; preds = %.critedge, %23
  call void @llvm.lifetime.end.p0(i64 16, ptr nonnull %6) #12
  ret void

27:                                               ; preds = %4
  %28 = landingpad { ptr, i32 }
          cleanup
  call void @_ZN2cv5utils5trace7details6RegionD2Ev(ptr noundef nonnull align 8 dereferenceable(12) %6) #12
  call void @llvm.lifetime.end.p0(i64 16, ptr nonnull %6) #12
  resume { ptr, i32 } %28
}